target datalayout = "e-m:e-p270:32:32-p271:32:32-p272:64:64-i64:64-i128:128-f80:128-n8:16:32:64-S128"
target triple = "x86_64-pc-linux-gnu"

%struct.LOCKTAG = type { i32, i32, i32, i16, i8, i8 }

@MyDatabaseId = external global i32, align 4

; Function Attrs: inlinehint nounwind uwtable
define internal void @SetLocktagRelationOid(ptr noundef %0, i32 noundef %1) #2 {
  %3 = alloca ptr, align 8
  %4 = alloca i32, align 4
  %5 = alloca i32, align 4
  store ptr %0, ptr %3, align 8
  store i32 %1, ptr %4, align 4
  call void @llvm.lifetime.start.p0(i64 4, ptr %5) #6
  %6 = load i32, ptr %4, align 4
  %7 = call zeroext i1 @IsSharedRelation(i32 noundef %6)
  br i1 %7, label %8, label %9

8:                                                ; preds = %2
  store i32 0, ptr %5, align 4
  br label %11

9:                                                ; preds = %2
  %10 = load i32, ptr @MyDatabaseId, align 4
  store i32 %10, ptr %5, align 4
  br label %11

11:                                               ; preds = %9, %8
  %12 = load i32, ptr %5, align 4
  %13 = load ptr, ptr %3, align 8
  %14 = getelementptr inbounds nuw %struct.LOCKTAG, ptr %13, i32 0, i32 0
  store i32 %12, ptr %14, align 4
  %15 = load i32, ptr %4, align 4
  %16 = load ptr, ptr %3, align 8
  %17 = getelementptr inbounds nuw %struct.LOCKTAG, ptr %16, i32 0, i32 1
  store i32 %15, ptr %17, align 4
  %18 = load ptr, ptr %3, align 8
  %19 = getelementptr inbounds nuw %struct.LOCKTAG, ptr %18, i32 0, i32 2
  store i32 0, ptr %19, align 4
  %20 = load ptr, ptr %3, align 8
  %21 = getelementptr inbounds nuw %struct.LOCKTAG, ptr %20, i32 0, i32 3
  store i16 0, ptr %21, align 4
  %22 = load ptr, ptr %3, align 8
  %23 = getelementptr inbounds nuw %struct.LOCKTAG, ptr %22, i32 0, i32 4
  store i8 0, ptr %23, align 2
  %24 = load ptr, ptr %3, align 8
  %25 = getelementptr inbounds nuw %struct.LOCKTAG, ptr %24, i32 0, i32 5
  store i8 1, ptr %25, align 1
  call void @llvm.lifetime.end.p0(i64 4, ptr %5) #6
  ret void
}

; Function Attrs: nounwind uwtable
define dso_local void @LockRelationOid(i32 noundef %0, i32 noundef %1) #0 {
  %3 = alloca i32, align 4
  %4 = alloca i32, align 4
  %5 = alloca %struct.LOCKTAG, align 4
  %6 = alloca ptr, align 8
  %7 = alloca i32, align 4
  store i32 %0, ptr %3, align 4
  store i32 %1, ptr %4, align 4
  call void @llvm.lifetime.start.p0(i64 16, ptr %5) #6
  call void @llvm.lifetime.start.p0(i64 8, ptr %6) #6
  call void @llvm.lifetime.start.p0(i64 4, ptr %7) #6
  %8 = load i32, ptr %3, align 4
  call void @SetLocktagRelationOid(ptr noundef %5, i32 noundef %8)
  %9 = load i32, ptr %4, align 4
  %10 = call i32 @LockAcquireExtended(ptr noundef %5, i32 noundef %9, i1 noundef zeroext false, i1 noundef zeroext false, i1 noundef zeroext true, ptr noundef %6)
  store i32 %10, ptr %7, align 4
  %11 = load i32, ptr %7, align 4
  %12 = icmp ne i32 %11, 3
  br i1 %12, label %13, label %15

13:                                               ; preds = %2
  call void @AcceptInvalidationMessages()
  %14 = load ptr, ptr %6, align 8
  call void @MarkLockClear(ptr noundef %14)
  br label %15

15:                                               ; preds = %13, %2
  call void @llvm.lifetime.end.p0(i64 4, ptr %7) #6
  call void @llvm.lifetime.end.p0(i64 8, ptr %6) #6
  call void @llvm.lifetime.end.p0(i64 16, ptr %5) #6
  ret void
}