; Function Attrs: nounwind uwtable
define dso_local void @LockRelationOid(i32 noundef %0, i32 noundef %1) local_unnamed_addr #1 {
  %3 = alloca %struct.LOCKTAG, align 4
  %4 = alloca ptr, align 8
  call void @llvm.lifetime.start.p0(i64 16, ptr nonnull %3) #8
  call void @llvm.lifetime.start.p0(i64 8, ptr nonnull %4) #8
  %5 = tail call zeroext i1 @IsSharedRelation(i32 noundef %0) #8
  %6 = load i32, ptr @MyDatabaseId, align 4
  %.0.i = select i1 %5, i32 0, i32 %6
  store i32 %.0.i, ptr %3, align 4
  %7 = getelementptr inbounds nuw i8, ptr %3, i64 4
  store i32 %0, ptr %7, align 4
  %8 = getelementptr inbounds nuw i8, ptr %3, i64 8
  store i32 0, ptr %8, align 4
  %9 = getelementptr inbounds nuw i8, ptr %3, i64 12
  store i16 0, ptr %9, align 4
  %10 = getelementptr inbounds nuw i8, ptr %3, i64 14
  store i8 0, ptr %10, align 2
  %11 = getelementptr inbounds nuw i8, ptr %3, i64 15
  store i8 1, ptr %11, align 1
  %12 = call i32 @LockAcquireExtended(ptr noundef nonnull %3, i32 noundef %1, i1 noundef zeroext false, i1 noundef zeroext false, i1 noundef zeroext true, ptr noundef nonnull %4) #8
  %.not = icmp eq i32 %12, 3
  br i1 %.not, label %15, label %13

13:                                               ; preds = %2
  call void @AcceptInvalidationMessages() #8
  %14 = load ptr, ptr %4, align 8
  call void @MarkLockClear(ptr noundef %14) #8
  br label %15

15:                                               ; preds = %13, %2
  call void @llvm.lifetime.end.p0(i64 8, ptr nonnull %4) #8
  call void @llvm.lifetime.end.p0(i64 16, ptr nonnull %3) #8
  ret void
}